target datalayout = "e-m:e-p270:32:32-p271:32:32-p272:64:64-i64:64-i128:128-f80:128-n8:16:32:64-S128"
target triple = "x86_64-pc-linux-gnu"

%"struct.duckdb_brotli::BrotliDecoderStateStruct" = type { i32, i32, %"struct.duckdb_brotli::BrotliBitReader", ptr, ptr, ptr, %union.anon, i64, i32, i32, i32, i32, i32, i32, [4 x i32], i32, i32, ptr, ptr, ptr, ptr, ptr, ptr, %"struct.duckdb_brotli::HuffmanTreeGroup", %"struct.duckdb_brotli::HuffmanTreeGroup", %"struct.duckdb_brotli::HuffmanTreeGroup", ptr, ptr, i32, i32, [3 x i64], i64, [3 x i64], [6 x i64], i64, i64, i64, ptr, ptr, i64, i64, i64, [65 x i32], i32, i32, i8, ptr, ptr, ptr, i64, i32, i32, i32, i32, i32, i32, i64, ptr, ptr, ptr, ptr, [8 x i32], %union.anon.0 }
%"struct.duckdb_brotli::BrotliBitReader" = type { i64, i64, ptr, ptr, ptr }
%union.anon = type { i64 }
%"struct.duckdb_brotli::HuffmanTreeGroup" = type { ptr, ptr, i16, i16, i16 }
%union.anon.0 = type { %"struct.duckdb_brotli::BrotliMetablockBodyArena" }
%"struct.duckdb_brotli::BrotliMetablockBodyArena" = type { [544 x i8], [544 x i64] }

; Function Attrs: mustprogress uwtable
define void @_ZN13duckdb_brotli28BrotliDecoderDestroyInstanceEPNS_24BrotliDecoderStateStructE(ptr noundef %0) #1 {
  %2 = alloca ptr, align 8
  %3 = alloca ptr, align 8
  %4 = alloca ptr, align 8
  store ptr %0, ptr %2, align 8, !tbaa !3
  %5 = load ptr, ptr %2, align 8, !tbaa !3
  %6 = icmp ne ptr %5, null
  br i1 %6, label %8, label %7

7:                                                ; preds = %1
  br label %19

8:                                                ; preds = %1
  call void @llvm.lifetime.start.p0(i64 8, ptr %3) #14
  %9 = load ptr, ptr %2, align 8, !tbaa !3
  %10 = getelementptr inbounds nuw %"struct.duckdb_brotli::BrotliDecoderStateStruct", ptr %9, i32 0, i32 4
  %11 = load ptr, ptr %10, align 8, !tbaa !27
  store ptr %11, ptr %3, align 8, !tbaa !26
  call void @llvm.lifetime.start.p0(i64 8, ptr %4) #14
  %12 = load ptr, ptr %2, align 8, !tbaa !3
  %13 = getelementptr inbounds nuw %"struct.duckdb_brotli::BrotliDecoderStateStruct", ptr %12, i32 0, i32 5
  %14 = load ptr, ptr %13, align 8, !tbaa !28
  store ptr %14, ptr %4, align 8, !tbaa !26
  %15 = load ptr, ptr %2, align 8, !tbaa !3
  call void @_ZN13duckdb_brotli25BrotliDecoderStateCleanupEPNS_24BrotliDecoderStateStructE(ptr noundef %15)
  %16 = load ptr, ptr %3, align 8, !tbaa !26
  %17 = load ptr, ptr %4, align 8, !tbaa !26
  %18 = load ptr, ptr %2, align 8, !tbaa !3
  call void %16(ptr noundef %17, ptr noundef %18)
  call void @llvm.lifetime.end.p0(i64 8, ptr %4) #14
  call void @llvm.lifetime.end.p0(i64 8, ptr %3) #14
  br label %19

19:                                               ; preds = %7, %8
  ret void
}